; Function Attrs: nounwind sspstrong uwtable
define internal fastcc void @fbuffer_append_str(ptr noundef captures(none) %0, i64 noundef %1) unnamed_addr #0 {
  %3 = alloca i64, align 8
  %4 = alloca ptr, align 8
  store i64 %1, ptr %3, align 8, !tbaa !6
  %5 = call ptr @rb_string_value_ptr(ptr noundef nonnull %3) #22
  %6 = load i64, ptr %3, align 8, !tbaa !6
  %7 = inttoptr i64 %6 to ptr
  %8 = getelementptr inbounds nuw i8, ptr %7, i64 16
  %9 = load i64, ptr %8, align 8, !tbaa !31
  call void @llvm.lifetime.start.p0(i64 8, ptr nonnull %4) #22
  store ptr %3, ptr %4, align 8, !tbaa !61
  call void asm sideeffect "", "*m,~{dirflag},~{fpsr},~{flags}"(ptr nonnull elementtype(ptr) %4) #22, !srcloc !63
  %10 = load ptr, ptr %4, align 8, !tbaa !61
  call void @llvm.lifetime.end.p0(i64 8, ptr nonnull %4) #22
  %11 = load volatile i64, ptr %10, align 8, !tbaa !6
  %.not.i = icmp eq i64 %9, 0
  br i1 %.not.i, label %fbuffer_append.exit, label %12

12:                                               ; preds = %2
  %13 = getelementptr inbounds nuw i8, ptr %0, i64 24
  %14 = load i64, ptr %13, align 8, !tbaa !47
  %15 = getelementptr inbounds nuw i8, ptr %0, i64 16
  %16 = load i64, ptr %15, align 8, !tbaa !56
  %17 = sub i64 %14, %16
  %18 = icmp ugt i64 %9, %17
  br i1 %18, label %19, label %ruby_nonempty_memcpy.exit.i, !prof !58

19:                                               ; preds = %12
  call fastcc void @fbuffer_do_inc_capa(ptr noundef nonnull %0, i64 noundef range(i64 1, 0) %9)
  %.pre.i = load i64, ptr %15, align 8, !tbaa !56
  br label %ruby_nonempty_memcpy.exit.i

ruby_nonempty_memcpy.exit.i:                      ; preds = %19, %12
  %20 = phi i64 [ %.pre.i, %19 ], [ %16, %12 ]
  %21 = getelementptr inbounds nuw i8, ptr %0, i64 32
  %22 = load ptr, ptr %21, align 8, !tbaa !46
  %23 = getelementptr inbounds nuw i8, ptr %22, i64 %20
  call void @llvm.memcpy.p0.p0.i64(ptr noundef nonnull align 1 %23, ptr noundef nonnull readonly align 1 %5, i64 noundef range(i64 1, 0) %9, i1 noundef false) #22
  %24 = load i64, ptr %15, align 8, !tbaa !56
  %25 = add i64 %24, %9
  store i64 %25, ptr %15, align 8, !tbaa !56
  br label %fbuffer_append.exit

fbuffer_append.exit:                              ; preds = %2, %ruby_nonempty_memcpy.exit.i
  ret void
}